target datalayout = "e-m:e-p270:32:32-p271:32:32-p272:64:64-i64:64-i128:128-f80:128-n8:16:32:64-S128"
target triple = "x86_64-pc-linux-gnu"

%struct.ident_t = type { i32, i32, i32, i32, ptr }
%"struct.faiss::RandomGenerator" = type { %"class.std::mersenne_twister_engine" }
%"class.std::mersenne_twister_engine" = type { [624 x i64], i64 }

@2 = private unnamed_addr constant %struct.ident_t { i32 0, i32 2, i32 0, i32 22, ptr @0 }, align 8
@_ZN5faiss15RandomGeneratorC1El = unnamed_addr alias void (ptr, i64), ptr @_ZN5faiss15RandomGeneratorC2El

; Function Attrs: mustprogress uwtable
define noundef i32 @_ZN5faiss15RandomGenerator8rand_intEv(ptr noundef nonnull align 8 dereferenceable(5000) %0) #0 align 2 {
  %2 = alloca ptr, align 8
  store ptr %0, ptr %2, align 8, !tbaa !4
  %3 = load ptr, ptr %2, align 8
  %4 = getelementptr inbounds nuw %"struct.faiss::RandomGenerator", ptr %3, i32 0, i32 0
  %5 = call noundef i64 @_ZNSt23mersenne_twister_engineImLm32ELm624ELm397ELm31ELm2567483615ELm11ELm4294967295ELm7ELm2636928640ELm15ELm4022730752ELm18ELm1812433253EEclEv(ptr noundef nonnull align 8 dereferenceable(5000) %4)
  %6 = and i64 %5, 2147483647
  %7 = trunc i64 %6 to i32
  ret i32 %7
}

; Function Attrs: mustprogress uwtable
define void @_ZN5faiss14int64_rand_maxEPlmml(ptr noundef %0, i64 noundef %1, i64 noundef %2, i64 noundef %3) #0 {
  %5 = alloca ptr, align 8
  %6 = alloca i64, align 8
  %7 = alloca i64, align 8
  %8 = alloca i64, align 8
  %9 = alloca i64, align 8
  %10 = alloca %"struct.faiss::RandomGenerator", align 8
  %11 = alloca i32, align 4
  %12 = alloca i32, align 4
  store ptr %0, ptr %5, align 8, !tbaa !29
  store i64 %1, ptr %6, align 8, !tbaa !9
  store i64 %2, ptr %7, align 8, !tbaa !9
  store i64 %3, ptr %8, align 8, !tbaa !9
  call void @llvm.lifetime.start.p0(i64 8, ptr %9) #5
  %13 = load i64, ptr %6, align 8, !tbaa !9
  %14 = icmp ult i64 %13, 1024
  %15 = select i1 %14, i32 1, i32 1024
  %16 = sext i32 %15 to i64
  store i64 %16, ptr %9, align 8, !tbaa !9
  call void @llvm.lifetime.start.p0(i64 5000, ptr %10) #5
  %17 = load i64, ptr %8, align 8, !tbaa !9
  call void @_ZN5faiss15RandomGeneratorC1El(ptr noundef nonnull align 8 dereferenceable(5000) %10, i64 noundef %17)
  call void @llvm.lifetime.start.p0(i64 4, ptr %11) #5
  %18 = call noundef i32 @_ZN5faiss15RandomGenerator8rand_intEv(ptr noundef nonnull align 8 dereferenceable(5000) %10)
  store i32 %18, ptr %11, align 4, !tbaa !19
  call void @llvm.lifetime.start.p0(i64 4, ptr %12) #5
  %19 = call noundef i32 @_ZN5faiss15RandomGenerator8rand_intEv(ptr noundef nonnull align 8 dereferenceable(5000) %10)
  store i32 %19, ptr %12, align 4, !tbaa !19
  call void (ptr, i32, ptr, ...) @__kmpc_fork_call(ptr @2, i32 6, ptr @_ZN5faiss14int64_rand_maxEPlmml.omp_outlined, ptr %9, ptr %11, ptr %12, ptr %6, ptr %5, ptr %7)
  call void @llvm.lifetime.end.p0(i64 4, ptr %12) #5
  call void @llvm.lifetime.end.p0(i64 4, ptr %11) #5
  call void @llvm.lifetime.end.p0(i64 5000, ptr %10) #5
  call void @llvm.lifetime.end.p0(i64 8, ptr %9) #5
  ret void
}