; Function Attrs: mustprogress uwtable
define void @_ZN5faiss14int64_rand_maxEPlmml(ptr noundef %0, i64 noundef %1, i64 noundef %2, i64 noundef %3) local_unnamed_addr #2 {
  %5 = alloca ptr, align 8
  %6 = alloca i64, align 8
  %7 = alloca i64, align 8
  %8 = alloca i64, align 8
  %9 = alloca %"struct.faiss::RandomGenerator", align 8
  %10 = alloca i32, align 4
  %11 = alloca i32, align 4
  store ptr %0, ptr %5, align 8, !tbaa !28
  store i64 %1, ptr %6, align 8, !tbaa !4
  store i64 %2, ptr %7, align 8, !tbaa !4
  call void @llvm.lifetime.start.p0(i64 8, ptr nonnull %8) #6
  %12 = icmp ult i64 %1, 1024
  %13 = select i1 %12, i64 1, i64 1024
  store i64 %13, ptr %8, align 8, !tbaa !4
  call void @llvm.lifetime.start.p0(i64 5000, ptr nonnull %9) #6
  call void @_ZN5faiss15RandomGeneratorC1El(ptr noundef nonnull align 8 dereferenceable(5000) %9, i64 noundef %3)
  call void @llvm.lifetime.start.p0(i64 4, ptr nonnull %10) #6
  %14 = call noundef i64 @_ZNSt23mersenne_twister_engineImLm32ELm624ELm397ELm31ELm2567483615ELm11ELm4294967295ELm7ELm2636928640ELm15ELm4022730752ELm18ELm1812433253EEclEv(ptr noundef nonnull align 8 dereferenceable(5000) %9)
  %15 = trunc i64 %14 to i32
  %16 = and i32 %15, 2147483647
  store i32 %16, ptr %10, align 4, !tbaa !19
  call void @llvm.lifetime.start.p0(i64 4, ptr nonnull %11) #6
  %17 = call noundef i64 @_ZNSt23mersenne_twister_engineImLm32ELm624ELm397ELm31ELm2567483615ELm11ELm4294967295ELm7ELm2636928640ELm15ELm4022730752ELm18ELm1812433253EEclEv(ptr noundef nonnull align 8 dereferenceable(5000) %9)
  %18 = trunc i64 %17 to i32
  %19 = and i32 %18, 2147483647
  store i32 %19, ptr %11, align 4, !tbaa !19
  call void (ptr, i32, ptr, ...) @__kmpc_fork_call(ptr nonnull @2, i32 6, ptr nonnull @_ZN5faiss14int64_rand_maxEPlmml.omp_outlined, ptr nonnull %8, ptr nonnull %10, ptr nonnull %11, ptr nonnull %6, ptr nonnull %5, ptr nonnull %7)
  call void @llvm.lifetime.end.p0(i64 4, ptr nonnull %11) #6
  call void @llvm.lifetime.end.p0(i64 4, ptr nonnull %10) #6
  call void @llvm.lifetime.end.p0(i64 5000, ptr nonnull %9) #6
  call void @llvm.lifetime.end.p0(i64 8, ptr nonnull %8) #6
  ret void
}